; Function Attrs: mustprogress uwtable
define internal void @_ZN7rocksdb12_GLOBAL__N_18PosixEnv26LowerThreadPoolCPUPriorityENS_3Env8PriorityENS_11CpuPriorityE(ptr noalias nocapture writeonly sret(%"class.rocksdb::Status") align 8 %agg.result, ptr nocapture noundef nonnull readonly align 8 dereferenceable(200) %this, i32 noundef %pool, i32 noundef %pri) unnamed_addr #3 align 2 personality ptr @__gxx_personality_v0 {
entry:
  %thread_pools_ = getelementptr inbounds i8, ptr %this, i64 168
  %0 = load ptr, ptr %thread_pools_, align 8
  %conv = zext i32 %pool to i64
  %1 = load ptr, ptr %0, align 8
  %add.ptr.i = getelementptr inbounds %"class.rocksdb::ThreadPoolImpl", ptr %1, i64 %conv
  tail call void @_ZN7rocksdb14ThreadPoolImpl16LowerCPUPriorityENS_11CpuPriorityE(ptr noundef nonnull align 8 dereferenceable(16) %add.ptr.i, i32 noundef %pri)
  %state_.i.i = getelementptr inbounds i8, ptr %agg.result, i64 8
  store ptr null, ptr %state_.i.i, align 8, !alias.scope !20
  tail call void @llvm.memset.p0.i64(ptr noundef nonnull align 8 dereferenceable(6) %agg.result, i8 0, i64 6, i1 false), !alias.scope !20
  ret void
}